target datalayout = "e-m:e-p270:32:32-p271:32:32-p272:64:64-i64:64-i128:128-f80:128-n8:16:32:64-S128"
target triple = "x86_64-pc-linux-gnu"

%struct.ggml_tensor = type { i32, ptr, [4 x i64], [4 x i64], i32, [16 x i32], i32, [10 x ptr], ptr, i64, ptr, [64 x i8], ptr, [8 x i8] }
%struct.ggml_hash_set = type { i64, ptr, ptr }

; Function Attrs: inlinehint mustprogress nounwind uwtable
define internal noundef zeroext i1 @_ZL15ggml_bitset_getPKjm(ptr noundef %0, i64 noundef %1) #14 {
  %3 = alloca ptr, align 8
  %4 = alloca i64, align 8
  store ptr %0, ptr %3, align 8, !tbaa !148
  store i64 %1, ptr %4, align 8, !tbaa !12
  %5 = load ptr, ptr %3, align 8, !tbaa !148
  %6 = load i64, ptr %4, align 8, !tbaa !12
  %7 = lshr i64 %6, 5
  %8 = getelementptr inbounds nuw i32, ptr %5, i64 %7
  %9 = load i32, ptr %8, align 4, !tbaa !89
  %10 = load i64, ptr %4, align 8, !tbaa !12
  %11 = and i64 %10, 31
  %12 = trunc i64 %11 to i32
  %13 = shl i32 1, %12
  %14 = and i32 %9, %13
  %15 = icmp ne i32 %14, 0
  %16 = xor i1 %15, true
  %17 = xor i1 %16, true
  ret i1 %17
}

; Function Attrs: inlinehint mustprogress nounwind uwtable
define internal noundef i64 @_ZL9ggml_hashPK11ggml_tensor(ptr noundef %0) #14 {
  %2 = alloca ptr, align 8
  store ptr %0, ptr %2, align 8, !tbaa !28
  %3 = load ptr, ptr %2, align 8, !tbaa !28
  %4 = ptrtoint ptr %3 to i64
  %5 = lshr i64 %4, 4
  ret i64 %5
}

; Function Attrs: mustprogress nounwind uwtable
define internal noundef i64 @_ZL14ggml_hash_findPK13ggml_hash_setPK11ggml_tensor(ptr noundef %0, ptr noundef %1) #4 {
  %3 = alloca i64, align 8
  %4 = alloca ptr, align 8
  %5 = alloca ptr, align 8
  %6 = alloca i64, align 8
  %7 = alloca i64, align 8
  %8 = alloca i32, align 4
  store ptr %0, ptr %4, align 8, !tbaa !236
  store ptr %1, ptr %5, align 8, !tbaa !28
  call void @llvm.lifetime.start.p0(i64 8, ptr %6) #15
  %9 = load ptr, ptr %5, align 8, !tbaa !28
  %10 = call noundef i64 @_ZL9ggml_hashPK11ggml_tensor(ptr noundef %9)
  %11 = load ptr, ptr %4, align 8, !tbaa !236
  %12 = getelementptr inbounds nuw %struct.ggml_hash_set, ptr %11, i32 0, i32 0
  %13 = load i64, ptr %12, align 8, !tbaa !238
  %14 = urem i64 %10, %13
  store i64 %14, ptr %6, align 8, !tbaa !12
  call void @llvm.lifetime.start.p0(i64 8, ptr %7) #15
  %15 = load i64, ptr %6, align 8, !tbaa !12
  store i64 %15, ptr %7, align 8, !tbaa !12
  br label %16

16:                                               ; preds = %44, %2
  %17 = load ptr, ptr %4, align 8, !tbaa !236
  %18 = getelementptr inbounds nuw %struct.ggml_hash_set, ptr %17, i32 0, i32 1
  %19 = load ptr, ptr %18, align 8, !tbaa !239
  %20 = load i64, ptr %7, align 8, !tbaa !12
  %21 = call noundef zeroext i1 @_ZL15ggml_bitset_getPKjm(ptr noundef %19, i64 noundef %20)
  br i1 %21, label %22, label %31

22:                                               ; preds = %16
  %23 = load ptr, ptr %4, align 8, !tbaa !236
  %24 = getelementptr inbounds nuw %struct.ggml_hash_set, ptr %23, i32 0, i32 2
  %25 = load ptr, ptr %24, align 8, !tbaa !240
  %26 = load i64, ptr %7, align 8, !tbaa !12
  %27 = getelementptr inbounds nuw ptr, ptr %25, i64 %26
  %28 = load ptr, ptr %27, align 8, !tbaa !28
  %29 = load ptr, ptr %5, align 8, !tbaa !28
  %30 = icmp ne ptr %28, %29
  br label %31

31:                                               ; preds = %22, %16
  %32 = phi i1 [ false, %16 ], [ %30, %22 ]
  br i1 %32, label %33, label %45

33:                                               ; preds = %31
  %34 = load i64, ptr %7, align 8, !tbaa !12
  %35 = add i64 %34, 1
  %36 = load ptr, ptr %4, align 8, !tbaa !236
  %37 = getelementptr inbounds nuw %struct.ggml_hash_set, ptr %36, i32 0, i32 0
  %38 = load i64, ptr %37, align 8, !tbaa !238
  %39 = urem i64 %35, %38
  store i64 %39, ptr %7, align 8, !tbaa !12
  %40 = load i64, ptr %7, align 8, !tbaa !12
  %41 = load i64, ptr %6, align 8, !tbaa !12
  %42 = icmp eq i64 %40, %41
  br i1 %42, label %43, label %44

43:                                               ; preds = %33
  store i64 -1, ptr %3, align 8
  store i32 1, ptr %8, align 4
  br label %47

44:                                               ; preds = %33
  br label %16, !llvm.loop !258

45:                                               ; preds = %31
  %46 = load i64, ptr %7, align 8, !tbaa !12
  store i64 %46, ptr %3, align 8
  store i32 1, ptr %8, align 4
  br label %47

47:                                               ; preds = %45, %43
  call void @llvm.lifetime.end.p0(i64 8, ptr %7) #15
  call void @llvm.lifetime.end.p0(i64 8, ptr %6) #15
  %48 = load i64, ptr %3, align 8
  ret i64 %48
}

; Function Attrs: mustprogress uwtable
define internal void @_ZL22graph_copy_init_tensorP13ggml_hash_setPP11ggml_tensorPbS2_(ptr noundef %0, ptr noundef %1, ptr noundef %2, ptr noundef %3) #0 {
  %5 = alloca ptr, align 8
  %6 = alloca ptr, align 8
  %7 = alloca ptr, align 8
  %8 = alloca ptr, align 8
  %9 = alloca i64, align 8
  %10 = alloca i32, align 4
  %11 = alloca ptr, align 8
  %12 = alloca i32, align 4
  %13 = alloca ptr, align 8
  store ptr %0, ptr %5, align 8, !tbaa !236
  store ptr %1, ptr %6, align 8, !tbaa !149
  store ptr %2, ptr %7, align 8, !tbaa !244
  store ptr %3, ptr %8, align 8, !tbaa !28
  call void @llvm.lifetime.start.p0(i64 8, ptr %9) #15
  %14 = load ptr, ptr %5, align 8, !tbaa !236
  %15 = load ptr, ptr %8, align 8, !tbaa !28
  %16 = call noundef i64 @_ZL14ggml_hash_findPK13ggml_hash_setPK11ggml_tensor(ptr noundef %14, ptr noundef %15)
  store i64 %16, ptr %9, align 8, !tbaa !12
  %17 = load ptr, ptr %7, align 8, !tbaa !244
  %18 = load i64, ptr %9, align 8, !tbaa !12
  %19 = getelementptr inbounds nuw i8, ptr %17, i64 %18
  %20 = load i8, ptr %19, align 1, !tbaa !129, !range !144, !noundef !145
  %21 = trunc i8 %20 to i1
  br i1 %21, label %22, label %23

22:                                               ; preds = %4
  store i32 1, ptr %10, align 4
  br label %73

23:                                               ; preds = %4
  %24 = load ptr, ptr %7, align 8, !tbaa !244
  %25 = load i64, ptr %9, align 8, !tbaa !12
  %26 = getelementptr inbounds nuw i8, ptr %24, i64 %25
  store i8 1, ptr %26, align 1, !tbaa !129
  call void @llvm.lifetime.start.p0(i64 8, ptr %11) #15
  %27 = load ptr, ptr %6, align 8, !tbaa !149
  %28 = load i64, ptr %9, align 8, !tbaa !12
  %29 = getelementptr inbounds nuw ptr, ptr %27, i64 %28
  %30 = load ptr, ptr %29, align 8, !tbaa !28
  store ptr %30, ptr %11, align 8, !tbaa !28
  %31 = load ptr, ptr %11, align 8, !tbaa !28
  %32 = getelementptr inbounds nuw %struct.ggml_tensor, ptr %31, i32 0, i32 8
  %33 = load ptr, ptr %32, align 8, !tbaa !49
  %34 = icmp ne ptr %33, null
  br i1 %34, label %35, label %43

35:                                               ; preds = %23
  %36 = load ptr, ptr %5, align 8, !tbaa !236
  %37 = load ptr, ptr %6, align 8, !tbaa !149
  %38 = load ptr, ptr %7, align 8, !tbaa !244
  %39 = load ptr, ptr %8, align 8, !tbaa !28
  %40 = getelementptr inbounds nuw %struct.ggml_tensor, ptr %39, i32 0, i32 8
  %41 = load ptr, ptr %40, align 8, !tbaa !49
  call void @_ZL22graph_copy_init_tensorP13ggml_hash_setPP11ggml_tensorPbS2_(ptr noundef %36, ptr noundef %37, ptr noundef %38, ptr noundef %41)
  %42 = load ptr, ptr %11, align 8, !tbaa !28
  call void @ggml_backend_view_init(ptr noundef %42)
  br label %46

43:                                               ; preds = %23
  %44 = load ptr, ptr %8, align 8, !tbaa !28
  %45 = load ptr, ptr %11, align 8, !tbaa !28
  call void @ggml_backend_tensor_copy(ptr noundef %44, ptr noundef %45)
  br label %46

46:                                               ; preds = %43, %35
  call void @llvm.lifetime.start.p0(i64 4, ptr %12) #15
  store i32 0, ptr %12, align 4, !tbaa !89
  br label %47

47:                                               ; preds = %69, %46
  %48 = load i32, ptr %12, align 4, !tbaa !89
  %49 = icmp slt i32 %48, 10
  br i1 %49, label %51, label %50

50:                                               ; preds = %47
  store i32 2, ptr %10, align 4
  call void @llvm.lifetime.end.p0(i64 4, ptr %12) #15
  br label %72

51:                                               ; preds = %47
  call void @llvm.lifetime.start.p0(i64 8, ptr %13) #15
  %52 = load ptr, ptr %8, align 8, !tbaa !28
  %53 = getelementptr inbounds nuw %struct.ggml_tensor, ptr %52, i32 0, i32 7
  %54 = load i32, ptr %12, align 4, !tbaa !89
  %55 = sext i32 %54 to i64
  %56 = getelementptr inbounds [10 x ptr], ptr %53, i64 0, i64 %55
  %57 = load ptr, ptr %56, align 8, !tbaa !28
  store ptr %57, ptr %13, align 8, !tbaa !28
  %58 = load ptr, ptr %13, align 8, !tbaa !28
  %59 = icmp eq ptr %58, null
  br i1 %59, label %60, label %61

60:                                               ; preds = %51
  store i32 4, ptr %10, align 4
  br label %66

61:                                               ; preds = %51
  %62 = load ptr, ptr %5, align 8, !tbaa !236
  %63 = load ptr, ptr %6, align 8, !tbaa !149
  %64 = load ptr, ptr %7, align 8, !tbaa !244
  %65 = load ptr, ptr %13, align 8, !tbaa !28
  call void @_ZL22graph_copy_init_tensorP13ggml_hash_setPP11ggml_tensorPbS2_(ptr noundef %62, ptr noundef %63, ptr noundef %64, ptr noundef %65)
  store i32 0, ptr %10, align 4
  br label %66

66:                                               ; preds = %61, %60
  call void @llvm.lifetime.end.p0(i64 8, ptr %13) #15
  %67 = load i32, ptr %10, align 4
  switch i32 %67, label %76 [
    i32 0, label %68
    i32 4, label %69
  ]

68:                                               ; preds = %66
  br label %69

69:                                               ; preds = %68, %66
  %70 = load i32, ptr %12, align 4, !tbaa !89
  %71 = add nsw i32 %70, 1
  store i32 %71, ptr %12, align 4, !tbaa !89
  br label %47, !llvm.loop !257

72:                                               ; preds = %50
  call void @llvm.lifetime.end.p0(i64 8, ptr %11) #15
  store i32 0, ptr %10, align 4
  br label %73

73:                                               ; preds = %72, %22
  call void @llvm.lifetime.end.p0(i64 8, ptr %9) #15
  %74 = load i32, ptr %10, align 4
  switch i32 %74, label %76 [
    i32 0, label %75
    i32 1, label %75
  ]

75:                                               ; preds = %73, %73
  ret void

76:                                               ; preds = %73, %66
  unreachable
}