; Function Attrs: mustprogress uwtable
define internal fastcc void @_ZL22graph_copy_init_tensorP13ggml_hash_setPP11ggml_tensorPbS2_(ptr noundef nonnull %0, ptr noundef %1, ptr noundef %2, ptr noundef %3) unnamed_addr #0 {
  %5 = ptrtoint ptr %3 to i64
  %6 = lshr i64 %5, 4
  %7 = load i64, ptr %0, align 8, !tbaa !155
  %8 = urem i64 %6, %7
  %9 = getelementptr inbounds nuw i8, ptr %0, i64 16
  %10 = getelementptr inbounds nuw i8, ptr %0, i64 8
  %11 = load ptr, ptr %10, align 8, !tbaa !156
  br label %12

12:                                               ; preds = %24, %4
  %.0.i = phi i64 [ %8, %4 ], [ %27, %24 ]
  %.0.fr.i = freeze i64 %.0.i
  %13 = lshr i64 %.0.fr.i, 5
  %14 = getelementptr inbounds nuw i32, ptr %11, i64 %13
  %15 = load i32, ptr %14, align 4, !tbaa !157
  %16 = trunc i64 %.0.fr.i to i32
  %17 = and i32 %16, 31
  %18 = shl nuw i32 1, %17
  %19 = and i32 %18, %15
  %.not15.i = icmp eq i32 %19, 0
  br i1 %.not15.i, label %_ZL14ggml_hash_findPK13ggml_hash_setPK11ggml_tensor.exit, label %20

20:                                               ; preds = %12
  %21 = load ptr, ptr %9, align 8, !tbaa !158
  %22 = getelementptr inbounds nuw ptr, ptr %21, i64 %.0.fr.i
  %23 = load ptr, ptr %22, align 8, !tbaa !154
  %.not.i = icmp eq ptr %23, %3
  br i1 %.not.i, label %_ZL14ggml_hash_findPK13ggml_hash_setPK11ggml_tensor.exit, label %24

24:                                               ; preds = %20
  %25 = add i64 %.0.fr.i, 1
  %26 = icmp eq i64 %25, %7
  %27 = select i1 %26, i64 0, i64 %25
  %28 = icmp eq i64 %27, %8
  br i1 %28, label %_ZL14ggml_hash_findPK13ggml_hash_setPK11ggml_tensor.exit, label %12, !llvm.loop !228

_ZL14ggml_hash_findPK13ggml_hash_setPK11ggml_tensor.exit: ; preds = %12, %20, %24
  %.013.i = phi i64 [ -1, %24 ], [ %.0.fr.i, %12 ], [ %.0.fr.i, %20 ]
  %29 = getelementptr inbounds nuw i8, ptr %2, i64 %.013.i
  %30 = load i8, ptr %29, align 1, !tbaa !152, !range !133, !noundef !134
  %31 = trunc nuw i8 %30 to i1
  br i1 %31, label %.loopexit, label %32

32:                                               ; preds = %_ZL14ggml_hash_findPK13ggml_hash_setPK11ggml_tensor.exit
  store i8 1, ptr %29, align 1, !tbaa !152
  %33 = getelementptr inbounds nuw ptr, ptr %1, i64 %.013.i
  %34 = load ptr, ptr %33, align 8, !tbaa !154
  %35 = getelementptr inbounds nuw i8, ptr %34, i64 232
  %36 = load ptr, ptr %35, align 8, !tbaa !41
  %.not = icmp eq ptr %36, null
  br i1 %.not, label %40, label %37

37:                                               ; preds = %32
  %38 = getelementptr inbounds nuw i8, ptr %3, i64 232
  %39 = load ptr, ptr %38, align 8, !tbaa !41
  tail call fastcc void @_ZL22graph_copy_init_tensorP13ggml_hash_setPP11ggml_tensorPbS2_(ptr noundef %0, ptr noundef nonnull %1, ptr noundef nonnull %2, ptr noundef %39)
  tail call void @ggml_backend_view_init(ptr noundef nonnull %34)
  br label %41

40:                                               ; preds = %32
  tail call void @ggml_backend_tensor_copy(ptr noundef %3, ptr noundef nonnull %34)
  br label %41

41:                                               ; preds = %40, %37
  %42 = getelementptr inbounds nuw i8, ptr %3, i64 152
  br label %43

43:                                               ; preds = %41, %48
  %indvars.iv = phi i64 [ 0, %41 ], [ %indvars.iv.next, %48 ]
  %44 = getelementptr inbounds nuw [10 x ptr], ptr %42, i64 0, i64 %indvars.iv
  %45 = load ptr, ptr %44, align 8, !tbaa !154
  %46 = icmp eq ptr %45, null
  br i1 %46, label %48, label %47

47:                                               ; preds = %43
  tail call fastcc void @_ZL22graph_copy_init_tensorP13ggml_hash_setPP11ggml_tensorPbS2_(ptr noundef %0, ptr noundef %1, ptr noundef %2, ptr noundef nonnull %45)
  br label %48

48:                                               ; preds = %43, %47
  %indvars.iv.next = add nuw nsw i64 %indvars.iv, 1
  %exitcond.not = icmp eq i64 %indvars.iv.next, 10
  br i1 %exitcond.not, label %.loopexit, label %43, !llvm.loop !232

.loopexit:                                        ; preds = %48, %_ZL14ggml_hash_findPK13ggml_hash_setPK11ggml_tensor.exit
  ret void
}